target datalayout = "e-m:e-p270:32:32-p271:32:32-p272:64:64-i64:64-i128:128-f80:128-n8:16:32:64-S128"
target triple = "x86_64-pc-linux-gnu"

%struct.AVFilterContext = type { ptr, ptr, ptr, ptr, ptr, i32, ptr, ptr, i32, ptr, ptr, i32, i32, ptr, ptr, ptr, ptr, i32, ptr, i32, i32 }
%struct.LagfunContext = type { ptr, float, i32, i32, i32, [4 x i32], [4 x i32], [4 x i32], [4 x ptr], [2 x ptr] }
%struct.ThreadData = type { ptr, ptr }
%struct.AVFilterLink = type { ptr, ptr, ptr, ptr, i32, i32, i32, i32, %struct.AVRational, i32, i32, i32, %struct.AVChannelLayout, %struct.AVRational, ptr, i32, %struct.AVFilterFormatsConfig, %struct.AVFilterFormatsConfig }
%struct.AVChannelLayout = type { i32, i32, %union.anon.1, ptr }
%union.anon.1 = type { i64 }
%struct.AVRational = type { i32, i32 }
%struct.AVFilterFormatsConfig = type { ptr, ptr, ptr, ptr, ptr }

; Function Attrs: nounwind uwtable
define internal i32 @filter_frame(ptr noundef %0, ptr noundef %1) #2 {
  %3 = alloca i32, align 4
  %4 = alloca ptr, align 8
  %5 = alloca ptr, align 8
  %6 = alloca ptr, align 8
  %7 = alloca ptr, align 8
  %8 = alloca ptr, align 8
  %9 = alloca %struct.ThreadData, align 8
  %10 = alloca ptr, align 8
  %11 = alloca i32, align 4
  store ptr %0, ptr %4, align 8, !tbaa !30
  store ptr %1, ptr %5, align 8, !tbaa !32
  call void @llvm.lifetime.start.p0(i64 8, ptr %6) #7
  %12 = load ptr, ptr %4, align 8, !tbaa !30
  %13 = getelementptr inbounds nuw %struct.AVFilterLink, ptr %12, i32 0, i32 2
  %14 = load ptr, ptr %13, align 8, !tbaa !34
  store ptr %14, ptr %6, align 8, !tbaa !4
  call void @llvm.lifetime.start.p0(i64 8, ptr %7) #7
  %15 = load ptr, ptr %6, align 8, !tbaa !4
  %16 = getelementptr inbounds nuw %struct.AVFilterContext, ptr %15, i32 0, i32 7
  %17 = load ptr, ptr %16, align 8, !tbaa !42
  %18 = getelementptr inbounds ptr, ptr %17, i64 0
  %19 = load ptr, ptr %18, align 8, !tbaa !30
  store ptr %19, ptr %7, align 8, !tbaa !30
  call void @llvm.lifetime.start.p0(i64 8, ptr %8) #7
  %20 = load ptr, ptr %6, align 8, !tbaa !4
  %21 = getelementptr inbounds nuw %struct.AVFilterContext, ptr %20, i32 0, i32 9
  %22 = load ptr, ptr %21, align 8, !tbaa !9
  store ptr %22, ptr %8, align 8, !tbaa !22
  call void @llvm.lifetime.start.p0(i64 16, ptr %9) #7
  call void @llvm.lifetime.start.p0(i64 8, ptr %10) #7
  %23 = load ptr, ptr %7, align 8, !tbaa !30
  %24 = load ptr, ptr %7, align 8, !tbaa !30
  %25 = getelementptr inbounds nuw %struct.AVFilterLink, ptr %24, i32 0, i32 6
  %26 = load i32, ptr %25, align 8, !tbaa !43
  %27 = load ptr, ptr %7, align 8, !tbaa !30
  %28 = getelementptr inbounds nuw %struct.AVFilterLink, ptr %27, i32 0, i32 7
  %29 = load i32, ptr %28, align 4, !tbaa !44
  %30 = call ptr @ff_get_video_buffer(ptr noundef %23, i32 noundef %26, i32 noundef %29)
  store ptr %30, ptr %10, align 8, !tbaa !32
  %31 = load ptr, ptr %10, align 8, !tbaa !32
  %32 = icmp ne ptr %31, null
  br i1 %32, label %34, label %33

33:                                               ; preds = %2
  call void @av_frame_free(ptr noundef %5)
  store i32 -12, ptr %3, align 4
  store i32 1, ptr %11, align 4
  br label %76

34:                                               ; preds = %2
  %35 = load ptr, ptr %10, align 8, !tbaa !32
  %36 = load ptr, ptr %5, align 8, !tbaa !32
  %37 = call i32 @av_frame_copy_props(ptr noundef %35, ptr noundef %36)
  %38 = load ptr, ptr %10, align 8, !tbaa !32
  %39 = getelementptr inbounds nuw %struct.ThreadData, ptr %9, i32 0, i32 1
  store ptr %38, ptr %39, align 8, !tbaa !45
  %40 = load ptr, ptr %5, align 8, !tbaa !32
  %41 = getelementptr inbounds nuw %struct.ThreadData, ptr %9, i32 0, i32 0
  store ptr %40, ptr %41, align 8, !tbaa !47
  %42 = load ptr, ptr %6, align 8, !tbaa !4
  %43 = load ptr, ptr %8, align 8, !tbaa !22
  %44 = getelementptr inbounds nuw %struct.LagfunContext, ptr %43, i32 0, i32 9
  %45 = load ptr, ptr %6, align 8, !tbaa !4
  %46 = getelementptr inbounds nuw %struct.AVFilterContext, ptr %45, i32 0, i32 17
  %47 = load i32, ptr %46, align 8, !tbaa !48
  %48 = icmp ne i32 %47, 0
  %49 = xor i1 %48, true
  %50 = xor i1 %49, true
  %51 = zext i1 %50 to i32
  %52 = sext i32 %51 to i64
  %53 = getelementptr inbounds [2 x ptr], ptr %44, i64 0, i64 %52
  %54 = load ptr, ptr %53, align 8, !tbaa !49
  %55 = load ptr, ptr %8, align 8, !tbaa !22
  %56 = getelementptr inbounds nuw %struct.LagfunContext, ptr %55, i32 0, i32 7
  %57 = getelementptr inbounds [4 x i32], ptr %56, i64 0, i64 1
  %58 = load i32, ptr %57, align 4, !tbaa !24
  %59 = load ptr, ptr %6, align 8, !tbaa !4
  %60 = call i32 @ff_filter_get_nb_threads(ptr noundef %59) #8
  %61 = icmp sgt i32 %58, %60
  br i1 %61, label %62, label %65

62:                                               ; preds = %34
  %63 = load ptr, ptr %6, align 8, !tbaa !4
  %64 = call i32 @ff_filter_get_nb_threads(ptr noundef %63) #8
  br label %70

65:                                               ; preds = %34
  %66 = load ptr, ptr %8, align 8, !tbaa !22
  %67 = getelementptr inbounds nuw %struct.LagfunContext, ptr %66, i32 0, i32 7
  %68 = getelementptr inbounds [4 x i32], ptr %67, i64 0, i64 1
  %69 = load i32, ptr %68, align 4, !tbaa !24
  br label %70

70:                                               ; preds = %65, %62
  %71 = phi i32 [ %64, %62 ], [ %69, %65 ]
  %72 = call i32 @ff_filter_execute(ptr noundef %42, ptr noundef %54, ptr noundef %9, ptr noundef null, i32 noundef %71)
  call void @av_frame_free(ptr noundef %5)
  %73 = load ptr, ptr %7, align 8, !tbaa !30
  %74 = load ptr, ptr %10, align 8, !tbaa !32
  %75 = call i32 @ff_filter_frame(ptr noundef %73, ptr noundef %74)
  store i32 %75, ptr %3, align 4
  store i32 1, ptr %11, align 4
  br label %76

76:                                               ; preds = %70, %33
  call void @llvm.lifetime.end.p0(i64 8, ptr %10) #7
  call void @llvm.lifetime.end.p0(i64 16, ptr %9) #7
  call void @llvm.lifetime.end.p0(i64 8, ptr %8) #7
  call void @llvm.lifetime.end.p0(i64 8, ptr %7) #7
  call void @llvm.lifetime.end.p0(i64 8, ptr %6) #7
  %77 = load i32, ptr %3, align 4
  ret i32 %77
}