; Function Attrs: nounwind uwtable
define internal i32 @filter_frame(ptr noundef readonly captures(none) %0, ptr noundef %1) #2 {
  %3 = alloca ptr, align 8
  %4 = alloca %struct.ThreadData, align 8
  store ptr %1, ptr %3, align 8, !tbaa !25
  %5 = getelementptr inbounds nuw i8, ptr %0, i64 16
  %6 = load ptr, ptr %5, align 8, !tbaa !27
  %7 = getelementptr inbounds nuw i8, ptr %6, i64 56
  %8 = load ptr, ptr %7, align 8, !tbaa !36
  %9 = load ptr, ptr %8, align 8, !tbaa !37
  %10 = getelementptr inbounds nuw i8, ptr %6, i64 72
  %11 = load ptr, ptr %10, align 8, !tbaa !4
  call void @llvm.lifetime.start.p0(i64 16, ptr nonnull %4) #7
  %12 = getelementptr inbounds nuw i8, ptr %9, i64 40
  %13 = load i32, ptr %12, align 8, !tbaa !39
  %14 = getelementptr inbounds nuw i8, ptr %9, i64 44
  %15 = load i32, ptr %14, align 4, !tbaa !40
  %16 = tail call ptr @ff_get_video_buffer(ptr noundef %9, i32 noundef %13, i32 noundef %15) #7
  %.not = icmp eq ptr %16, null
  br i1 %.not, label %17, label %18

17:                                               ; preds = %2
  call void @av_frame_free(ptr noundef nonnull %3) #7
  br label %33

18:                                               ; preds = %2
  %19 = tail call i32 @av_frame_copy_props(ptr noundef nonnull %16, ptr noundef %1) #7
  %20 = getelementptr inbounds nuw i8, ptr %4, i64 8
  store ptr %16, ptr %20, align 8, !tbaa !41
  store ptr %1, ptr %4, align 8, !tbaa !43
  %21 = getelementptr inbounds nuw i8, ptr %11, i64 104
  %22 = getelementptr inbounds nuw i8, ptr %6, i64 128
  %23 = load i32, ptr %22, align 8, !tbaa !44
  %24 = icmp ne i32 %23, 0
  %25 = zext i1 %24 to i64
  %26 = getelementptr inbounds nuw [2 x ptr], ptr %21, i64 0, i64 %25
  %27 = load ptr, ptr %26, align 8, !tbaa !45
  %28 = getelementptr inbounds nuw i8, ptr %11, i64 60
  %29 = load i32, ptr %28, align 4, !tbaa !46
  %30 = tail call i32 @ff_filter_get_nb_threads(ptr noundef nonnull %6) #8
  %. = tail call i32 @llvm.smin.i32(i32 %29, i32 %30)
  %31 = call i32 @ff_filter_execute(ptr noundef nonnull %6, ptr noundef %27, ptr noundef nonnull %4, ptr noundef null, i32 noundef %.) #7
  call void @av_frame_free(ptr noundef nonnull %3) #7
  %32 = call i32 @ff_filter_frame(ptr noundef nonnull %9, ptr noundef nonnull %16) #7
  br label %33

33:                                               ; preds = %18, %17
  %.0 = phi i32 [ %32, %18 ], [ -12, %17 ]
  call void @llvm.lifetime.end.p0(i64 16, ptr nonnull %4) #7
  ret i32 %.0
}